; Function Attrs: mustprogress uwtable
define hidden void @_ZN7datalog8compiler21make_dealloc_non_voidEjRNS_17instruction_blockE(ptr noundef nonnull readnone align 8 captures(none) dereferenceable(192) %0, i32 noundef %1, ptr noundef nonnull align 8 dereferenceable(16) %2) local_unnamed_addr #3 align 2 {
  %.not = icmp eq i32 %1, -1
  br i1 %.not, label %_ZN7datalog17instruction_block9push_backEPNS_11instructionE.exit, label %4

4:                                                ; preds = %3
  %5 = tail call noundef ptr @_ZN7datalog11instruction10mk_deallocEj(i32 noundef %1)
  %6 = load ptr, ptr %2, align 8, !tbaa !245
  %7 = icmp eq ptr %6, null
  br i1 %7, label %14, label %8

8:                                                ; preds = %4
  %9 = getelementptr inbounds i8, ptr %6, i64 -4
  %10 = load i32, ptr %9, align 4, !tbaa !24
  %11 = getelementptr inbounds i8, ptr %6, i64 -8
  %12 = load i32, ptr %11, align 4, !tbaa !24
  %13 = icmp eq i32 %10, %12
  br i1 %13, label %14, label %_ZN6vectorIPN7datalog11instructionELb0EjE9push_backERKS2_.exit.i

14:                                               ; preds = %8, %4
  tail call void @_ZN6vectorIPN7datalog11instructionELb0EjE13expand_vectorEv(ptr noundef nonnull align 8 dereferenceable(16) %2)
  %.pre.i.i = load ptr, ptr %2, align 8, !tbaa !245
  %.phi.trans.insert.i.i = getelementptr inbounds i8, ptr %.pre.i.i, i64 -4
  %.pre2.i.i = load i32, ptr %.phi.trans.insert.i.i, align 4, !tbaa !24
  br label %_ZN6vectorIPN7datalog11instructionELb0EjE9push_backERKS2_.exit.i

_ZN6vectorIPN7datalog11instructionELb0EjE9push_backERKS2_.exit.i: ; preds = %14, %8
  %15 = phi i32 [ %.pre2.i.i, %14 ], [ %10, %8 ]
  %16 = phi ptr [ %.pre.i.i, %14 ], [ %6, %8 ]
  %17 = getelementptr inbounds i8, ptr %16, i64 -4
  %18 = zext i32 %15 to i64
  %19 = getelementptr inbounds nuw ptr, ptr %16, i64 %18
  store ptr %5, ptr %19, align 8, !tbaa !248
  %20 = add i32 %15, 1
  store i32 %20, ptr %17, align 4, !tbaa !24
  %21 = getelementptr inbounds nuw i8, ptr %2, i64 8
  %22 = load ptr, ptr %21, align 8, !tbaa !250
  %.not.i = icmp eq ptr %22, null
  br i1 %.not.i, label %_ZN7datalog17instruction_block9push_backEPNS_11instructionE.exit, label %23

23:                                               ; preds = %_ZN6vectorIPN7datalog11instructionELb0EjE9push_backERKS2_.exit.i
  %24 = load ptr, ptr %22, align 8, !tbaa !241
  %25 = getelementptr inbounds nuw i8, ptr %24, i64 16
  %26 = load ptr, ptr %25, align 8
  tail call void %26(ptr noundef nonnull align 8 dereferenceable(8) %22, ptr noundef %5)
  br label %_ZN7datalog17instruction_block9push_backEPNS_11instructionE.exit

_ZN7datalog17instruction_block9push_backEPNS_11instructionE.exit: ; preds = %23, %_ZN6vectorIPN7datalog11instructionELb0EjE9push_backERKS2_.exit.i, %3
  ret void
}